; ModuleID = 'bench/duckdb/original/platform.ll'
source_filename = "bench/duckdb/original/platform.ll"
target datalayout = "e-m:e-p270:32:32-p271:32:32-p272:64:64-i64:64-i128:128-f80:128-n8:16:32:64-S128"
target triple = "x86_64-pc-linux-gnu"

; Function Attrs: mustprogress nofree nounwind willreturn memory(inaccessiblemem: readwrite) uwtable
define noalias noundef ptr @_ZN13duckdb_brotli22BrotliDefaultAllocFuncEPvm(ptr noundef readnone captures(none) %0, i64 noundef %1) local_unnamed_addr #0 {
  %3 = tail call noalias ptr @malloc(i64 noundef %1) #4
  ret ptr %3
}

; Function Attrs: mustprogress nofree nounwind willreturn allockind("alloc,uninitialized") allocsize(0) memory(inaccessiblemem: readwrite)
declare noalias noundef ptr @malloc(i64 noundef) local_unnamed_addr #1

; Function Attrs: mustprogress nounwind willreturn memory(argmem: readwrite, inaccessiblemem: readwrite) uwtable
define void @_ZN13duckdb_brotli21BrotliDefaultFreeFuncEPvS0_(ptr noundef readnone captures(none) %0, ptr noundef captures(none) %1) local_unnamed_addr #2 {
  tail call void @free(ptr noundef %1) #5
  ret void
}

; Function Attrs: mustprogress nounwind willreturn allockind("free") memory(argmem: readwrite, inaccessiblemem: readwrite)
declare void @free(ptr allocptr noundef captures(none)) local_unnamed_addr #3


!llvm.module.flags = !{!0, !1, !2}

!0 = !{i32 1, !"wchar_size", i32 4}
!1 = !{i32 8, !"PIC Level", i32 2}
!2 = !{i32 7, !"uwtable", i32 2}
